target datalayout = "e-m:e-p270:32:32-p271:32:32-p272:64:64-i64:64-i128:128-f80:128-n8:16:32:64-S128"
target triple = "x86_64-pc-linux-gnu"

%struct.Vec_Int_t_ = type { i32, i32, ptr }
%struct.Vec_Wec_t_ = type { i32, i32, ptr }
%struct.Fx_Man_t_ = type { ptr, i32, i32, ptr, ptr, ptr, ptr, ptr, ptr, ptr, ptr, ptr, ptr, ptr, ptr, ptr, i64, i32, i32, i32, i32, i32, i32, i32, [3 x i32] }
%struct.Hsh_VecMan_t_ = type { ptr, ptr, ptr, %struct.Vec_Int_t_, %struct.Vec_Int_t_, %struct.Vec_Int_t_ }
%struct.Vec_Que_t_ = type { i32, i32, ptr, ptr, ptr }

@.str.8 = private unnamed_addr constant [13 x i8] c"Cubes =%8d  \00", align 1
@.str.9 = private unnamed_addr constant [13 x i8] c"Lits  =%8d  \00", align 1
@.str.10 = private unnamed_addr constant [13 x i8] c"Divs  =%8d  \00", align 1
@.str.11 = private unnamed_addr constant [13 x i8] c"Divs+ =%8d  \00", align 1
@.str.12 = private unnamed_addr constant [13 x i8] c"Compl =%8d  \00", align 1
@.str.13 = private unnamed_addr constant [13 x i8] c"Extr  =%7d  \00", align 1
@.str.14 = private unnamed_addr constant [5 x i8] c"Time\00", align 1
@.str.15 = private unnamed_addr constant [5 x i8] c"%s =\00", align 1
@.str.16 = private unnamed_addr constant [11 x i8] c"%9.2f sec\0A\00", align 1

; Function Attrs: inlinehint nounwind uwtable
define internal i32 @Vec_IntSize(ptr noundef %0) #2 {
  %2 = alloca ptr, align 8
  store ptr %0, ptr %2, align 8, !tbaa !32
  %3 = load ptr, ptr %2, align 8, !tbaa !32
  %4 = getelementptr inbounds nuw %struct.Vec_Int_t_, ptr %3, i32 0, i32 1
  %5 = load i32, ptr %4, align 4, !tbaa !44
  ret i32 %5
}

; Function Attrs: inlinehint nounwind uwtable
define internal ptr @Vec_WecEntry(ptr noundef %0, i32 noundef %1) #2 {
  %3 = alloca ptr, align 8
  %4 = alloca i32, align 4
  store ptr %0, ptr %3, align 8, !tbaa !8
  store i32 %1, ptr %4, align 4, !tbaa !10
  %5 = load ptr, ptr %3, align 8, !tbaa !8
  %6 = getelementptr inbounds nuw %struct.Vec_Wec_t_, ptr %5, i32 0, i32 2
  %7 = load ptr, ptr %6, align 8, !tbaa !40
  %8 = load i32, ptr %4, align 4, !tbaa !10
  %9 = sext i32 %8 to i64
  %10 = getelementptr inbounds %struct.Vec_Int_t_, ptr %7, i64 %9
  ret ptr %10
}

; Function Attrs: inlinehint nounwind uwtable
define internal i32 @Vec_WecSize(ptr noundef %0) #2 {
  %2 = alloca ptr, align 8
  store ptr %0, ptr %2, align 8, !tbaa !8
  %3 = load ptr, ptr %2, align 8, !tbaa !8
  %4 = getelementptr inbounds nuw %struct.Vec_Wec_t_, ptr %3, i32 0, i32 1
  %5 = load i32, ptr %4, align 4, !tbaa !37
  ret i32 %5
}

; Function Attrs: inlinehint nounwind uwtable
define internal void @Abc_PrintTime(i32 noundef %0, ptr noundef %1, i64 noundef %2) #2 {
  %4 = alloca i32, align 4
  %5 = alloca ptr, align 8
  %6 = alloca i64, align 8
  store i32 %0, ptr %4, align 4, !tbaa !10
  store ptr %1, ptr %5, align 8, !tbaa !31
  store i64 %2, ptr %6, align 8, !tbaa !72
  %7 = load ptr, ptr %5, align 8, !tbaa !31
  call void (i32, ptr, ...) @Abc_Print(i32 noundef 1, ptr noundef @.str.15, ptr noundef %7)
  %8 = load i64, ptr %6, align 8, !tbaa !72
  %9 = sitofp i64 %8 to double
  %10 = fmul double 1.000000e+00, %9
  %11 = fdiv double %10, 1.000000e+06
  call void (i32, ptr, ...) @Abc_Print(i32 noundef 1, ptr noundef @.str.16, double noundef %11)
  ret void
}

; Function Attrs: inlinehint nounwind uwtable
define internal i32 @Vec_QueSize(ptr noundef %0) #2 {
  %2 = alloca ptr, align 8
  store ptr %0, ptr %2, align 8, !tbaa !106
  %3 = load ptr, ptr %2, align 8, !tbaa !106
  %4 = getelementptr inbounds nuw %struct.Vec_Que_t_, ptr %3, i32 0, i32 1
  %5 = load i32, ptr %4, align 4, !tbaa !144
  %6 = sub nsw i32 %5, 1
  ret i32 %6
}

; Function Attrs: inlinehint nounwind uwtable
define internal i32 @Hsh_VecSize(ptr noundef %0) #2 {
  %2 = alloca ptr, align 8
  store ptr %0, ptr %2, align 8, !tbaa !98
  %3 = load ptr, ptr %2, align 8, !tbaa !98
  %4 = getelementptr inbounds nuw %struct.Hsh_VecMan_t_, ptr %3, i32 0, i32 2
  %5 = load ptr, ptr %4, align 8, !tbaa !102
  %6 = call i32 @Vec_IntSize(ptr noundef %5)
  ret i32 %6
}

; Function Attrs: inlinehint nounwind uwtable
define internal i32 @Vec_WecSizeUsed(ptr noundef %0) #2 {
  %2 = alloca ptr, align 8
  %3 = alloca ptr, align 8
  %4 = alloca i32, align 4
  %5 = alloca i32, align 4
  store ptr %0, ptr %2, align 8, !tbaa !8
  call void @llvm.lifetime.start.p0(i64 8, ptr %3) #13
  call void @llvm.lifetime.start.p0(i64 4, ptr %4) #13
  call void @llvm.lifetime.start.p0(i64 4, ptr %5) #13
  store i32 0, ptr %5, align 4, !tbaa !10
  store i32 0, ptr %4, align 4, !tbaa !10
  br label %6

6:                                                ; preds = %24, %1
  %7 = load i32, ptr %4, align 4, !tbaa !10
  %8 = load ptr, ptr %2, align 8, !tbaa !8
  %9 = call i32 @Vec_WecSize(ptr noundef %8)
  %10 = icmp slt i32 %7, %9
  br i1 %10, label %11, label %15

11:                                               ; preds = %6
  %12 = load ptr, ptr %2, align 8, !tbaa !8
  %13 = load i32, ptr %4, align 4, !tbaa !10
  %14 = call ptr @Vec_WecEntry(ptr noundef %12, i32 noundef %13)
  store ptr %14, ptr %3, align 8, !tbaa !32
  br label %15

15:                                               ; preds = %11, %6
  %16 = phi i1 [ false, %6 ], [ true, %11 ]
  br i1 %16, label %17, label %27

17:                                               ; preds = %15
  %18 = load ptr, ptr %3, align 8, !tbaa !32
  %19 = call i32 @Vec_IntSize(ptr noundef %18)
  %20 = icmp sgt i32 %19, 0
  %21 = zext i1 %20 to i32
  %22 = load i32, ptr %5, align 4, !tbaa !10
  %23 = add nsw i32 %22, %21
  store i32 %23, ptr %5, align 4, !tbaa !10
  br label %24

24:                                               ; preds = %17
  %25 = load i32, ptr %4, align 4, !tbaa !10
  %26 = add nsw i32 %25, 1
  store i32 %26, ptr %4, align 4, !tbaa !10
  br label %6, !llvm.loop !208

27:                                               ; preds = %15
  %28 = load i32, ptr %5, align 4, !tbaa !10
  call void @llvm.lifetime.end.p0(i64 4, ptr %5) #13
  call void @llvm.lifetime.end.p0(i64 4, ptr %4) #13
  call void @llvm.lifetime.end.p0(i64 8, ptr %3) #13
  ret i32 %28
}

; Function Attrs: nounwind uwtable
define internal void @Fx_PrintStats(ptr noundef %0, i64 noundef %1) #0 {
  %3 = alloca ptr, align 8
  %4 = alloca i64, align 8
  store ptr %0, ptr %3, align 8, !tbaa !74
  store i64 %1, ptr %4, align 8, !tbaa !72
  %5 = load ptr, ptr %3, align 8, !tbaa !74
  %6 = getelementptr inbounds nuw %struct.Fx_Man_t_, ptr %5, i32 0, i32 0
  %7 = load ptr, ptr %6, align 8, !tbaa !85
  %8 = call i32 @Vec_WecSizeUsed(ptr noundef %7)
  %9 = call i32 (ptr, ...) @printf(ptr noundef @.str.8, i32 noundef %8)
  %10 = load ptr, ptr %3, align 8, !tbaa !74
  %11 = getelementptr inbounds nuw %struct.Fx_Man_t_, ptr %10, i32 0, i32 3
  %12 = load ptr, ptr %11, align 8, !tbaa !92
  %13 = call i32 @Vec_WecSizeUsed(ptr noundef %12)
  %14 = call i32 (ptr, ...) @printf(ptr noundef @.str.9, i32 noundef %13)
  %15 = load ptr, ptr %3, align 8, !tbaa !74
  %16 = getelementptr inbounds nuw %struct.Fx_Man_t_, ptr %15, i32 0, i32 5
  %17 = load ptr, ptr %16, align 8, !tbaa !94
  %18 = call i32 @Hsh_VecSize(ptr noundef %17)
  %19 = call i32 (ptr, ...) @printf(ptr noundef @.str.10, i32 noundef %18)
  %20 = load ptr, ptr %3, align 8, !tbaa !74
  %21 = getelementptr inbounds nuw %struct.Fx_Man_t_, ptr %20, i32 0, i32 7
  %22 = load ptr, ptr %21, align 8, !tbaa !83
  %23 = call i32 @Vec_QueSize(ptr noundef %22)
  %24 = call i32 (ptr, ...) @printf(ptr noundef @.str.11, i32 noundef %23)
  %25 = load ptr, ptr %3, align 8, !tbaa !74
  %26 = getelementptr inbounds nuw %struct.Fx_Man_t_, ptr %25, i32 0, i32 24
  %27 = getelementptr inbounds [3 x i32], ptr %26, i64 0, i64 1
  %28 = load i32, ptr %27, align 4, !tbaa !10
  %29 = call i32 (ptr, ...) @printf(ptr noundef @.str.12, i32 noundef %28)
  %30 = load ptr, ptr %3, align 8, !tbaa !74
  %31 = getelementptr inbounds nuw %struct.Fx_Man_t_, ptr %30, i32 0, i32 19
  %32 = load i32, ptr %31, align 8, !tbaa !158
  %33 = call i32 (ptr, ...) @printf(ptr noundef @.str.13, i32 noundef %32)
  %34 = load i64, ptr %4, align 8, !tbaa !72
  call void @Abc_PrintTime(i32 noundef 1, ptr noundef @.str.14, i64 noundef %34)
  ret void
}