; Function Attrs: nounwind uwtable
define internal fastcc void @Fx_PrintStats(ptr noundef readonly captures(none) %0, i64 noundef %1) unnamed_addr #0 {
  %3 = load ptr, ptr %0, align 8, !tbaa !96
  %4 = getelementptr i8, ptr %3, i64 4
  %.val8.i = load i32, ptr %4, align 4, !tbaa !3
  %5 = icmp sgt i32 %.val8.i, 0
  br i1 %5, label %.lr.ph.i, label %Vec_WecSizeUsed.exit

.lr.ph.i:                                         ; preds = %2
  %6 = getelementptr i8, ptr %3, i64 8
  %.val9.i = load ptr, ptr %6, align 8, !tbaa !11
  %wide.trip.count.i = zext nneg i32 %.val8.i to i64
  br label %7

7:                                                ; preds = %7, %.lr.ph.i
  %indvars.iv.i = phi i64 [ 0, %.lr.ph.i ], [ %indvars.iv.next.i, %7 ]
  %.011.i = phi i32 [ 0, %.lr.ph.i ], [ %11, %7 ]
  %8 = getelementptr %struct.Vec_Int_t_, ptr %.val9.i, i64 %indvars.iv.i, i32 1
  %.val.i = load i32, ptr %8, align 4, !tbaa !36
  %9 = icmp sgt i32 %.val.i, 0
  %10 = zext i1 %9 to i32
  %11 = add nuw nsw i32 %.011.i, %10
  %indvars.iv.next.i = add nuw nsw i64 %indvars.iv.i, 1
  %exitcond.not.i = icmp eq i64 %indvars.iv.next.i, %wide.trip.count.i
  br i1 %exitcond.not.i, label %Vec_WecSizeUsed.exit, label %7, !llvm.loop !191

Vec_WecSizeUsed.exit:                             ; preds = %7, %2
  %.0.lcssa.i = phi i32 [ 0, %2 ], [ %11, %7 ]
  %12 = tail call i32 (ptr, ...) @printf(ptr noundef nonnull dereferenceable(1) @.str.8, i32 noundef %.0.lcssa.i)
  %13 = getelementptr inbounds nuw i8, ptr %0, i64 16
  %14 = load ptr, ptr %13, align 8, !tbaa !103
  %15 = getelementptr i8, ptr %14, i64 4
  %.val8.i7 = load i32, ptr %15, align 4, !tbaa !3
  %16 = icmp sgt i32 %.val8.i7, 0
  br i1 %16, label %.lr.ph.i9, label %Vec_WecSizeUsed.exit17

.lr.ph.i9:                                        ; preds = %Vec_WecSizeUsed.exit
  %17 = getelementptr i8, ptr %14, i64 8
  %.val9.i10 = load ptr, ptr %17, align 8, !tbaa !11
  %wide.trip.count.i11 = zext nneg i32 %.val8.i7 to i64
  br label %18

18:                                               ; preds = %18, %.lr.ph.i9
  %indvars.iv.i12 = phi i64 [ 0, %.lr.ph.i9 ], [ %indvars.iv.next.i15, %18 ]
  %.011.i13 = phi i32 [ 0, %.lr.ph.i9 ], [ %22, %18 ]
  %19 = getelementptr %struct.Vec_Int_t_, ptr %.val9.i10, i64 %indvars.iv.i12, i32 1
  %.val.i14 = load i32, ptr %19, align 4, !tbaa !36
  %20 = icmp sgt i32 %.val.i14, 0
  %21 = zext i1 %20 to i32
  %22 = add nuw nsw i32 %.011.i13, %21
  %indvars.iv.next.i15 = add nuw nsw i64 %indvars.iv.i12, 1
  %exitcond.not.i16 = icmp eq i64 %indvars.iv.next.i15, %wide.trip.count.i11
  br i1 %exitcond.not.i16, label %Vec_WecSizeUsed.exit17, label %18, !llvm.loop !191

Vec_WecSizeUsed.exit17:                           ; preds = %18, %Vec_WecSizeUsed.exit
  %.0.lcssa.i8 = phi i32 [ 0, %Vec_WecSizeUsed.exit ], [ %22, %18 ]
  %23 = tail call i32 (ptr, ...) @printf(ptr noundef nonnull dereferenceable(1) @.str.9, i32 noundef %.0.lcssa.i8)
  %24 = getelementptr inbounds nuw i8, ptr %0, i64 32
  %25 = load ptr, ptr %24, align 8, !tbaa !105
  %26 = getelementptr i8, ptr %25, i64 16
  %.val = load ptr, ptr %26, align 8, !tbaa !109
  %27 = getelementptr i8, ptr %.val, i64 4
  %.val.val = load i32, ptr %27, align 4, !tbaa !36
  %28 = tail call i32 (ptr, ...) @printf(ptr noundef nonnull dereferenceable(1) @.str.10, i32 noundef %.val.val)
  %29 = getelementptr inbounds nuw i8, ptr %0, i64 48
  %30 = load ptr, ptr %29, align 8, !tbaa !80
  %31 = getelementptr i8, ptr %30, i64 4
  %.val6 = load i32, ptr %31, align 4, !tbaa !81
  %32 = add nsw i32 %.val6, -1
  %33 = tail call i32 (ptr, ...) @printf(ptr noundef nonnull dereferenceable(1) @.str.11, i32 noundef %32)
  %34 = getelementptr inbounds nuw i8, ptr %0, i64 160
  %35 = load i32, ptr %34, align 4, !tbaa !39
  %36 = tail call i32 (ptr, ...) @printf(ptr noundef nonnull dereferenceable(1) @.str.12, i32 noundef %35)
  %37 = getelementptr inbounds nuw i8, ptr %0, i64 136
  %38 = load i32, ptr %37, align 8, !tbaa !160
  %39 = tail call i32 (ptr, ...) @printf(ptr noundef nonnull dereferenceable(1) @.str.13, i32 noundef %38)
  tail call void (i32, ptr, ...) @Abc_Print(i32 poison, ptr noundef nonnull @.str.15, ptr noundef nonnull @.str.14)
  %40 = sitofp i64 %1 to double
  %41 = fdiv double %40, 1.000000e+06
  tail call void (i32, ptr, ...) @Abc_Print(i32 poison, ptr noundef nonnull @.str.16, double noundef %41)
  ret void
}